; Function Attrs: mustprogress uwtable
define noundef ptr @_ZNK7rocksdb25CacheWithSecondaryAdapter4NameEv(ptr nocapture noundef nonnull readonly align 8 dereferenceable(184) %this) unnamed_addr #0 align 2 {
entry:
  %distribute_cache_res_ = getelementptr inbounds i8, ptr %this, i64 92
  %0 = load i8, ptr %distribute_cache_res_, align 4
  %1 = and i8 %0, 1
  %tobool.not = icmp eq i8 %1, 0
  br i1 %tobool.not, label %if.else, label %return

if.else:                                          ; preds = %entry
  %target_ = getelementptr inbounds i8, ptr %this, i64 56
  %2 = load ptr, ptr %target_, align 8
  %vtable = load ptr, ptr %2, align 8
  %vfn = getelementptr inbounds i8, ptr %vtable, i64 16
  %3 = load ptr, ptr %vfn, align 8
  %call2 = tail call noundef ptr %3(ptr noundef nonnull align 8 dereferenceable(56) %2)
  br label %return

return:                                           ; preds = %entry, %if.else
  %retval.0 = phi ptr [ %call2, %if.else ], [ @.str.3, %entry ]
  ret ptr %retval.0
}